target datalayout = "e-m:e-p270:32:32-p271:32:32-p272:64:64-i64:64-i128:128-f80:128-n8:16:32:64-S128"
target triple = "x86_64-pc-linux-gnu"

@plugin_type = dso_local constant [9 x i8] c"gpu/nvml\00", align 1
@.str.5 = private unnamed_addr constant [26 x i8] c"%s: %s: %s: cpu_range: %s\00", align 1
@__func__.gpu_p_test_cpu_conv = private unnamed_addr constant [20 x i8] c"gpu_p_test_cpu_conv\00", align 1
@.str.6 = private unnamed_addr constant [18 x i8] c"cpu_range is null\00", align 1
@.str.7 = private unnamed_addr constant [1 x i8] zeroinitializer, align 1
@.str.8 = private unnamed_addr constant [34 x i8] c"cpu_range doesn't start with `~`!\00", align 1
@.str.9 = private unnamed_addr constant [6 x i8] c"~zero\00", align 1
@.str.10 = private unnamed_addr constant [5 x i8] c"~max\00", align 1
@.str.11 = private unnamed_addr constant [5 x i8] c"~one\00", align 1
@.str.12 = private unnamed_addr constant [7 x i8] c"~three\00", align 1
@.str.13 = private unnamed_addr constant [6 x i8] c"~half\00", align 1
@.str.14 = private unnamed_addr constant [21 x i8] c"Unknown test keyword\00", align 1
@.str.15 = private unnamed_addr constant [2 x i8] c"X\00", align 1
@.str.16 = private unnamed_addr constant [6 x i8] c"(%lu)\00", align 1
@.str.17 = private unnamed_addr constant [4 x i8] c"%lu\00", align 1
@.str.18 = private unnamed_addr constant [2 x i8] c"\0A\00", align 1

; Function Attrs: nounwind uwtable
define dso_local ptr @gpu_p_test_cpu_conv(ptr noundef %0) #0 {
  %2 = alloca ptr, align 8
  %3 = alloca ptr, align 8
  %4 = alloca [512 x i64], align 16
  %5 = alloca ptr, align 8
  %6 = alloca i32, align 4
  %7 = alloca ptr, align 8
  %8 = alloca i32, align 4
  %9 = alloca i32, align 4
  store ptr %0, ptr %3, align 8
  call void @llvm.lifetime.start.p0(i64 4096, ptr %4) #7
  call void @llvm.lifetime.start.p0(i64 8, ptr %5) #7
  call void @llvm.lifetime.start.p0(i64 4, ptr %6) #7
  call void @llvm.lifetime.start.p0(i64 8, ptr %7) #7
  br label %10

10:                                               ; preds = %1
  br label %11

11:                                               ; preds = %10
  %12 = call i32 @slurm_get_log_level()
  %13 = icmp sge i32 %12, 3
  br i1 %13, label %14, label %16

14:                                               ; preds = %11
  %15 = load ptr, ptr %3, align 8
  call void (i32, ptr, ...) @slurm_log_var(i32 noundef 3, ptr noundef @.str.5, ptr noundef @plugin_type, ptr noundef @__func__.gpu_p_test_cpu_conv, ptr noundef @__func__.gpu_p_test_cpu_conv, ptr noundef %15)
  br label %16

16:                                               ; preds = %14, %11
  br label %17

17:                                               ; preds = %16
  br label %18

18:                                               ; preds = %17
  br label %19

19:                                               ; preds = %18
  br label %20

20:                                               ; preds = %19
  %21 = load ptr, ptr %3, align 8
  %22 = icmp ne ptr %21, null
  br i1 %22, label %26, label %23

23:                                               ; preds = %20
  %24 = call i32 (ptr, ...) @slurm_error(ptr noundef @.str.6)
  %25 = call ptr @slurm_xstrdup(ptr noundef @.str.7)
  store ptr %25, ptr %2, align 8
  store i32 1, ptr %8, align 4
  br label %191

26:                                               ; preds = %20
  %27 = load ptr, ptr %3, align 8
  %28 = getelementptr inbounds i8, ptr %27, i64 0
  %29 = load i8, ptr %28, align 1
  %30 = sext i8 %29 to i32
  %31 = icmp ne i32 %30, 126
  br i1 %31, label %32, label %35

32:                                               ; preds = %26
  %33 = call i32 (ptr, ...) @slurm_error(ptr noundef @.str.8)
  %34 = call ptr @slurm_xstrdup(ptr noundef @.str.7)
  store ptr %34, ptr %2, align 8
  store i32 1, ptr %8, align 4
  br label %191

35:                                               ; preds = %26
  store i32 0, ptr %6, align 4
  br label %36

36:                                               ; preds = %44, %35
  %37 = load i32, ptr %6, align 4
  %38 = sext i32 %37 to i64
  %39 = icmp ult i64 %38, 512
  br i1 %39, label %40, label %47

40:                                               ; preds = %36
  %41 = load i32, ptr %6, align 4
  %42 = sext i32 %41 to i64
  %43 = getelementptr inbounds [512 x i64], ptr %4, i64 0, i64 %42
  store i64 0, ptr %43, align 8
  br label %44

44:                                               ; preds = %40
  %45 = load i32, ptr %6, align 4
  %46 = add nsw i32 %45, 1
  store i32 %46, ptr %6, align 4
  br label %36, !llvm.loop !20

47:                                               ; preds = %36
  %48 = load ptr, ptr %3, align 8
  %49 = call i32 @slurm_xstrcmp(ptr noundef %48, ptr noundef @.str.9)
  %50 = icmp eq i32 %49, 0
  br i1 %50, label %51, label %52

51:                                               ; preds = %47
  br label %139

52:                                               ; preds = %47
  %53 = load ptr, ptr %3, align 8
  %54 = call i32 @slurm_xstrcmp(ptr noundef %53, ptr noundef @.str.10)
  %55 = icmp eq i32 %54, 0
  br i1 %55, label %56, label %69

56:                                               ; preds = %52
  store i32 0, ptr %6, align 4
  br label %57

57:                                               ; preds = %65, %56
  %58 = load i32, ptr %6, align 4
  %59 = sext i32 %58 to i64
  %60 = icmp ult i64 %59, 512
  br i1 %60, label %61, label %68

61:                                               ; preds = %57
  %62 = load i32, ptr %6, align 4
  %63 = sext i32 %62 to i64
  %64 = getelementptr inbounds [512 x i64], ptr %4, i64 0, i64 %63
  store i64 -1, ptr %64, align 8
  br label %65

65:                                               ; preds = %61
  %66 = load i32, ptr %6, align 4
  %67 = add nsw i32 %66, 1
  store i32 %67, ptr %6, align 4
  br label %57, !llvm.loop !21

68:                                               ; preds = %57
  br label %138

69:                                               ; preds = %52
  %70 = load ptr, ptr %3, align 8
  %71 = call i32 @slurm_xstrcmp(ptr noundef %70, ptr noundef @.str.11)
  %72 = icmp eq i32 %71, 0
  br i1 %72, label %73, label %75

73:                                               ; preds = %69
  %74 = getelementptr inbounds [512 x i64], ptr %4, i64 0, i64 0
  store i64 1, ptr %74, align 16
  br label %137

75:                                               ; preds = %69
  %76 = load ptr, ptr %3, align 8
  %77 = call i32 @slurm_xstrcmp(ptr noundef %76, ptr noundef @.str.12)
  %78 = icmp eq i32 %77, 0
  br i1 %78, label %79, label %81

79:                                               ; preds = %75
  %80 = getelementptr inbounds [512 x i64], ptr %4, i64 0, i64 0
  store i64 3, ptr %80, align 16
  br label %136

81:                                               ; preds = %75
  %82 = load ptr, ptr %3, align 8
  %83 = call i32 @slurm_xstrcmp(ptr noundef %82, ptr noundef @.str.13)
  %84 = icmp eq i32 %83, 0
  br i1 %84, label %85, label %87

85:                                               ; preds = %81
  %86 = getelementptr inbounds [512 x i64], ptr %4, i64 0, i64 0
  store i64 65280, ptr %86, align 16
  br label %135

87:                                               ; preds = %81
  %88 = load ptr, ptr %3, align 8
  %89 = getelementptr inbounds i8, ptr %88, i64 1
  %90 = load i8, ptr %89, align 1
  %91 = sext i8 %90 to i32
  %92 = icmp eq i32 %91, 88
  br i1 %92, label %93, label %131

93:                                               ; preds = %87
  call void @llvm.lifetime.start.p0(i64 4, ptr %9) #7
  %94 = load ptr, ptr %3, align 8
  %95 = getelementptr inbounds i8, ptr %94, i64 1
  %96 = call i64 @strlen(ptr noundef %95) #8
  %97 = icmp ult i64 %96, 512
  br i1 %97, label %98, label %102

98:                                               ; preds = %93
  %99 = load ptr, ptr %3, align 8
  %100 = getelementptr inbounds i8, ptr %99, i64 1
  %101 = call i64 @strlen(ptr noundef %100) #8
  br label %103

102:                                              ; preds = %93
  br label %103

103:                                              ; preds = %102, %98
  %104 = phi i64 [ %101, %98 ], [ 512, %102 ]
  %105 = trunc i64 %104 to i32
  store i32 %105, ptr %9, align 4
  store i32 0, ptr %6, align 4
  br label %106

106:                                              ; preds = %114, %103
  %107 = load i32, ptr %6, align 4
  %108 = load i32, ptr %9, align 4
  %109 = icmp slt i32 %107, %108
  br i1 %109, label %110, label %117

110:                                              ; preds = %106
  %111 = load i32, ptr %6, align 4
  %112 = sext i32 %111 to i64
  %113 = getelementptr inbounds [512 x i64], ptr %4, i64 0, i64 %112
  store i64 -1, ptr %113, align 8
  br label %114

114:                                              ; preds = %110
  %115 = load i32, ptr %6, align 4
  %116 = add nsw i32 %115, 1
  store i32 %116, ptr %6, align 4
  br label %106, !llvm.loop !22

117:                                              ; preds = %106
  %118 = load i32, ptr %9, align 4
  store i32 %118, ptr %6, align 4
  br label %119

119:                                              ; preds = %127, %117
  %120 = load i32, ptr %6, align 4
  %121 = sext i32 %120 to i64
  %122 = icmp ult i64 %121, 512
  br i1 %122, label %123, label %130

123:                                              ; preds = %119
  %124 = load i32, ptr %6, align 4
  %125 = sext i32 %124 to i64
  %126 = getelementptr inbounds [512 x i64], ptr %4, i64 0, i64 %125
  store i64 0, ptr %126, align 8
  br label %127

127:                                              ; preds = %123
  %128 = load i32, ptr %6, align 4
  %129 = add nsw i32 %128, 1
  store i32 %129, ptr %6, align 4
  br label %119, !llvm.loop !23

130:                                              ; preds = %119
  call void @llvm.lifetime.end.p0(i64 4, ptr %9) #7
  br label %134

131:                                              ; preds = %87
  %132 = call i32 (ptr, ...) @slurm_error(ptr noundef @.str.14)
  %133 = call ptr @slurm_xstrdup(ptr noundef @.str.7)
  store ptr %133, ptr %2, align 8
  store i32 1, ptr %8, align 4
  br label %191

134:                                              ; preds = %130
  br label %135

135:                                              ; preds = %134, %85
  br label %136

136:                                              ; preds = %135, %79
  br label %137

137:                                              ; preds = %136, %73
  br label %138

138:                                              ; preds = %137, %68
  br label %139

139:                                              ; preds = %138, %51
  store i32 0, ptr %6, align 4
  br label %140

140:                                              ; preds = %173, %139
  %141 = load i32, ptr %6, align 4
  %142 = sext i32 %141 to i64
  %143 = icmp ult i64 %142, 512
  br i1 %143, label %144, label %176

144:                                              ; preds = %140
  %145 = load i32, ptr %6, align 4
  %146 = sext i32 %145 to i64
  %147 = getelementptr inbounds [512 x i64], ptr %4, i64 0, i64 %146
  %148 = load i64, ptr %147, align 8
  %149 = trunc i64 %148 to i32
  %150 = icmp eq i32 %149, -1
  br i1 %150, label %151, label %153

151:                                              ; preds = %144
  %152 = call i32 (ptr, ...) @printf(ptr noundef @.str.15)
  br label %172

153:                                              ; preds = %144
  %154 = load i32, ptr %6, align 4
  %155 = sext i32 %154 to i64
  %156 = getelementptr inbounds [512 x i64], ptr %4, i64 0, i64 %155
  %157 = load i64, ptr %156, align 8
  %158 = icmp ugt i64 %157, 9
  br i1 %158, label %159, label %165

159:                                              ; preds = %153
  %160 = load i32, ptr %6, align 4
  %161 = sext i32 %160 to i64
  %162 = getelementptr inbounds [512 x i64], ptr %4, i64 0, i64 %161
  %163 = load i64, ptr %162, align 8
  %164 = call i32 (ptr, ...) @printf(ptr noundef @.str.16, i64 noundef %163)
  br label %171

165:                                              ; preds = %153
  %166 = load i32, ptr %6, align 4
  %167 = sext i32 %166 to i64
  %168 = getelementptr inbounds [512 x i64], ptr %4, i64 0, i64 %167
  %169 = load i64, ptr %168, align 8
  %170 = call i32 (ptr, ...) @printf(ptr noundef @.str.17, i64 noundef %169)
  br label %171

171:                                              ; preds = %165, %159
  br label %172

172:                                              ; preds = %171, %151
  br label %173

173:                                              ; preds = %172
  %174 = load i32, ptr %6, align 4
  %175 = add nsw i32 %174, 1
  store i32 %175, ptr %6, align 4
  br label %140, !llvm.loop !24

176:                                              ; preds = %140
  %177 = call i32 (ptr, ...) @printf(ptr noundef @.str.18)
  %178 = call ptr @slurm_bit_alloc(i64 noundef 32768)
  store ptr %178, ptr %5, align 8
  %179 = load ptr, ptr %5, align 8
  %180 = getelementptr inbounds [512 x i64], ptr %4, i64 0, i64 0
  call void @_set_cpu_set_bitstr(ptr noundef %179, ptr noundef %180, i32 noundef 512)
  %181 = load ptr, ptr %5, align 8
  %182 = call ptr @slurm_bit_fmt_full(ptr noundef %181)
  store ptr %182, ptr %7, align 8
  br label %183

183:                                              ; preds = %176
  %184 = load ptr, ptr %5, align 8
  %185 = icmp ne ptr %184, null
  br i1 %185, label %186, label %187

186:                                              ; preds = %183
  call void @slurm_bit_free(ptr noundef %5)
  br label %187

187:                                              ; preds = %186, %183
  store ptr null, ptr %5, align 8
  br label %188

188:                                              ; preds = %187
  br label %189

189:                                              ; preds = %188
  %190 = load ptr, ptr %7, align 8
  store ptr %190, ptr %2, align 8
  store i32 1, ptr %8, align 4
  br label %191

191:                                              ; preds = %189, %131, %32, %23
  call void @llvm.lifetime.end.p0(i64 8, ptr %7) #7
  call void @llvm.lifetime.end.p0(i64 4, ptr %6) #7
  call void @llvm.lifetime.end.p0(i64 8, ptr %5) #7
  call void @llvm.lifetime.end.p0(i64 4096, ptr %4) #7
  %192 = load ptr, ptr %2, align 8
  ret ptr %192
}