; Function Attrs: nounwind uwtable
define dso_local ptr @gpu_p_test_cpu_conv(ptr noundef %0) local_unnamed_addr #0 {
  %2 = alloca [512 x i64], align 16
  %3 = alloca ptr, align 8
  call void @llvm.lifetime.start.p0(i64 4096, ptr nonnull %2) #12
  call void @llvm.lifetime.start.p0(i64 8, ptr nonnull %3) #12
  %4 = tail call i32 @slurm_get_log_level() #12
  %5 = icmp sgt i32 %4, 2
  br i1 %5, label %6, label %7

6:                                                ; preds = %1
  tail call void (i32, ptr, ...) @slurm_log_var(i32 noundef 3, ptr noundef nonnull @.str.5, ptr noundef nonnull @plugin_type, ptr noundef nonnull @__func__.gpu_p_test_cpu_conv, ptr noundef nonnull @__func__.gpu_p_test_cpu_conv, ptr noundef %0) #12
  br label %7

7:                                                ; preds = %6, %1
  %.not = icmp eq ptr %0, null
  br i1 %.not, label %8, label %11

8:                                                ; preds = %7
  %9 = tail call i32 (ptr, ...) @slurm_error(ptr noundef nonnull @.str.6) #12
  %10 = tail call ptr @slurm_xstrdup(ptr noundef nonnull @.str.7) #12
  br label %66

11:                                               ; preds = %7
  %12 = load i8, ptr %0, align 1
  %.not42 = icmp eq i8 %12, 126
  br i1 %.not42, label %.preheader48.preheader, label %15

.preheader48.preheader:                           ; preds = %11
  call void @llvm.memset.p0.i64(ptr noundef nonnull align 16 dereferenceable(4096) %2, i8 0, i64 4096, i1 false)
  %13 = tail call i32 @slurm_xstrcmp(ptr noundef nonnull %0, ptr noundef nonnull @.str.9) #12
  %14 = icmp eq i32 %13, 0
  br i1 %14, label %.loopexit.preheader, label %18

.loopexit.preheader:                              ; preds = %.lr.ph52.preheader, %.preheader.preheader, %.preheader46, %28, %32, %24, %.preheader48.preheader
  br label %.loopexit

15:                                               ; preds = %11
  %16 = tail call i32 (ptr, ...) @slurm_error(ptr noundef nonnull @.str.8) #12
  %17 = tail call ptr @slurm_xstrdup(ptr noundef nonnull @.str.7) #12
  br label %66

18:                                               ; preds = %.preheader48.preheader
  %19 = tail call i32 @slurm_xstrcmp(ptr noundef nonnull %0, ptr noundef nonnull @.str.10) #12
  %20 = icmp eq i32 %19, 0
  br i1 %20, label %.preheader.preheader, label %21

.preheader.preheader:                             ; preds = %18
  call void @llvm.memset.p0.i64(ptr noundef nonnull align 16 dereferenceable(4096) %2, i8 -1, i64 4096, i1 false)
  br label %.loopexit.preheader

21:                                               ; preds = %18
  %22 = tail call i32 @slurm_xstrcmp(ptr noundef nonnull %0, ptr noundef nonnull @.str.11) #12
  %23 = icmp eq i32 %22, 0
  br i1 %23, label %24, label %25

24:                                               ; preds = %21
  store i64 1, ptr %2, align 16
  br label %.loopexit.preheader

25:                                               ; preds = %21
  %26 = tail call i32 @slurm_xstrcmp(ptr noundef nonnull %0, ptr noundef nonnull @.str.12) #12
  %27 = icmp eq i32 %26, 0
  br i1 %27, label %28, label %29

28:                                               ; preds = %25
  store i64 3, ptr %2, align 16
  br label %.loopexit.preheader

29:                                               ; preds = %25
  %30 = tail call i32 @slurm_xstrcmp(ptr noundef nonnull %0, ptr noundef nonnull @.str.13) #12
  %31 = icmp eq i32 %30, 0
  br i1 %31, label %32, label %33

32:                                               ; preds = %29
  store i64 65280, ptr %2, align 16
  br label %.loopexit.preheader

33:                                               ; preds = %29
  %34 = getelementptr inbounds nuw i8, ptr %0, i64 1
  %35 = load i8, ptr %34, align 1
  %36 = icmp eq i8 %35, 88
  br i1 %36, label %37, label %47

37:                                               ; preds = %33
  %38 = tail call i64 @strlen(ptr noundef nonnull dereferenceable(1) %34) #13
  %spec.select45 = tail call i64 @llvm.umin.i64(i64 %38, i64 512)
  %.not55 = icmp eq i64 %38, 0
  br i1 %.not55, label %.lr.ph52.preheader, label %.preheader46

.preheader46:                                     ; preds = %37
  %39 = shl nuw nsw i64 %spec.select45, 3
  %40 = add nuw nsw i64 %39, 34359738360
  %41 = and i64 %40, 34359738360
  %42 = add nuw nsw i64 %41, 8
  call void @llvm.memset.p0.i64(ptr noundef nonnull align 16 dereferenceable(1) %2, i8 -1, i64 %42, i1 false)
  %43 = icmp ult i64 %38, 512
  br i1 %43, label %.lr.ph52.preheader, label %.loopexit.preheader

.lr.ph52.preheader:                               ; preds = %37, %.preheader46
  %44 = shl nuw nsw i64 %spec.select45, 3
  %scevgep = getelementptr i8, ptr %2, i64 %44
  %45 = shl nuw nsw i64 %spec.select45, 3
  %46 = sub nuw nsw i64 4096, %45
  call void @llvm.memset.p0.i64(ptr align 8 %scevgep, i8 0, i64 %46, i1 false)
  br label %.loopexit.preheader

47:                                               ; preds = %33
  %48 = tail call i32 (ptr, ...) @slurm_error(ptr noundef nonnull @.str.14) #12
  %49 = tail call ptr @slurm_xstrdup(ptr noundef nonnull @.str.7) #12
  br label %66

.loopexit:                                        ; preds = %.loopexit.preheader, %61
  %indvars.iv = phi i64 [ %indvars.iv.next, %61 ], [ 0, %.loopexit.preheader ]
  %50 = getelementptr inbounds nuw [512 x i64], ptr %2, i64 0, i64 %indvars.iv
  %51 = load i64, ptr %50, align 8
  %52 = and i64 %51, 4294967295
  %53 = icmp eq i64 %52, 4294967295
  br i1 %53, label %54, label %55

54:                                               ; preds = %.loopexit
  %putchar44 = tail call i32 @putchar(i32 88)
  br label %61

55:                                               ; preds = %.loopexit
  %56 = icmp ugt i64 %51, 9
  br i1 %56, label %57, label %59

57:                                               ; preds = %55
  %58 = tail call i32 (ptr, ...) @printf(ptr noundef nonnull dereferenceable(1) @.str.16, i64 noundef %51)
  br label %61

59:                                               ; preds = %55
  %60 = tail call i32 (ptr, ...) @printf(ptr noundef nonnull dereferenceable(1) @.str.17, i64 noundef %51)
  br label %61

61:                                               ; preds = %54, %59, %57
  %indvars.iv.next = add nuw nsw i64 %indvars.iv, 1
  %exitcond.not = icmp eq i64 %indvars.iv.next, 512
  br i1 %exitcond.not, label %62, label %.loopexit, !llvm.loop !24

62:                                               ; preds = %61
  %putchar = tail call i32 @putchar(i32 10)
  %63 = tail call ptr @slurm_bit_alloc(i64 noundef 32768) #12
  store ptr %63, ptr %3, align 8
  call fastcc void @_set_cpu_set_bitstr(ptr noundef %63, ptr noundef %2)
  %64 = tail call ptr @slurm_bit_fmt_full(ptr noundef %63) #12
  %.not43 = icmp eq ptr %63, null
  br i1 %.not43, label %66, label %65

65:                                               ; preds = %62
  call void @slurm_bit_free(ptr noundef nonnull %3) #12
  br label %66

66:                                               ; preds = %62, %65, %47, %15, %8
  %.0 = phi ptr [ %17, %15 ], [ %49, %47 ], [ %10, %8 ], [ %64, %65 ], [ %64, %62 ]
  call void @llvm.lifetime.end.p0(i64 8, ptr nonnull %3) #12
  call void @llvm.lifetime.end.p0(i64 4096, ptr nonnull %2) #12
  ret ptr %.0
}